; Function Attrs: nounwind sspstrong uwtable
define ptr @cJSON_CreateObject() local_unnamed_addr #8 {
  %global_hooks.val = load ptr, ptr @global_hooks, align 8, !tbaa !18
  %1 = tail call ptr %global_hooks.val(i64 noundef 64) #31
  %.not.i = icmp eq ptr %1, null
  br i1 %.not.i, label %cJSON_New_Item.exit.thread, label %2

2:                                                ; preds = %0
  tail call void @llvm.memset.p0.i64(ptr noundef nonnull align 8 dereferenceable(64) %1, i8 0, i64 64, i1 false)
  %3 = getelementptr inbounds nuw i8, ptr %1, i64 24
  store i32 64, ptr %3, align 8, !tbaa !11
  br label %cJSON_New_Item.exit.thread

cJSON_New_Item.exit.thread:                       ; preds = %0, %2
  ret ptr %1
}